; ModuleID = '60/455.c'
source_filename = "60/455.c"
target datalayout = "e-m:e-p270:32:32-p271:32:32-p272:64:64-i64:64-f80:128-n8:16:32:64-S128"
target triple = "x86_64-pc-linux-gnu"

@.str = private unnamed_addr constant [3 x i8] c"%d\00", align 1
@.str.1 = private unnamed_addr constant [7 x i8] c"%d %d\0A\00", align 1
@.str.2 = private unnamed_addr constant [6 x i8] c"empty\00", align 1

; Function Attrs: noinline nounwind uwtable
define dso_local void @main() #0 {
  %1 = alloca i32, align 4
  %2 = alloca i32, align 4
  %3 = alloca i32, align 4
  %4 = alloca i32, align 4
  %5 = alloca [10000 x i32], align 16
  %6 = alloca i32*, align 8
  %7 = bitcast [10000 x i32]* %5 to i8*
  call void @llvm.memset.p0i8.i64(i8* align 16 %7, i8 0, i64 40000, i1 false)
  %8 = call i32 (i8*, ...) @__isoc99_scanf(i8* getelementptr inbounds ([3 x i8], [3 x i8]* @.str, i64 0, i64 0), i32* %1)
  %9 = getelementptr inbounds [10000 x i32], [10000 x i32]* %5, i64 0, i64 0
  store i32* %9, i32** %6, align 8
  store i32 3, i32* %2, align 4
  br label %10

10:                                               ; preds = %39, %0
  %11 = load i32, i32* %2, align 4
  %12 = load i32, i32* %1, align 4
  %13 = icmp sle i32 %11, %12
  br i1 %13, label %14, label %42

14:                                               ; preds = %10
  store i32 3, i32* %3, align 4
  br label %15

15:                                               ; preds = %26, %14
  %16 = load i32, i32* %3, align 4
  %17 = load i32, i32* %2, align 4
  %18 = icmp slt i32 %16, %17
  br i1 %18, label %19, label %29

19:                                               ; preds = %15
  %20 = load i32, i32* %2, align 4
  %21 = load i32, i32* %3, align 4
  %22 = srem i32 %20, %21
  %23 = icmp eq i32 %22, 0
  br i1 %23, label %24, label %25

24:                                               ; preds = %19
  br label %29

25:                                               ; preds = %19
  br label %26

26:                                               ; preds = %25
  %27 = load i32, i32* %3, align 4
  %28 = add nsw i32 %27, 1
  store i32 %28, i32* %3, align 4
  br label %15

29:                                               ; preds = %24, %15
  %30 = load i32, i32* %3, align 4
  %31 = load i32, i32* %2, align 4
  %32 = icmp eq i32 %30, %31
  br i1 %32, label %33, label %38

33:                                               ; preds = %29
  %34 = load i32, i32* %2, align 4
  %35 = load i32*, i32** %6, align 8
  store i32 %34, i32* %35, align 4
  %36 = load i32*, i32** %6, align 8
  %37 = getelementptr inbounds i32, i32* %36, i32 1
  store i32* %37, i32** %6, align 8
  br label %38

38:                                               ; preds = %33, %29
  br label %39

39:                                               ; preds = %38
  %40 = load i32, i32* %2, align 4
  %41 = add nsw i32 %40, 2
  store i32 %41, i32* %2, align 4
  br label %10

42:                                               ; preds = %10
  %43 = load i32*, i32** %6, align 8
  %44 = getelementptr inbounds [10000 x i32], [10000 x i32]* %5, i64 0, i64 0
  %45 = ptrtoint i32* %43 to i64
  %46 = ptrtoint i32* %44 to i64
  %47 = sub i64 %45, %46
  %48 = sdiv exact i64 %47, 4
  %49 = trunc i64 %48 to i32
  store i32 %49, i32* %4, align 4
  store i32 1, i32* %2, align 4
  br label %50

50:                                               ; preds = %78, %42
  %51 = load i32, i32* %2, align 4
  %52 = load i32, i32* %4, align 4
  %53 = icmp slt i32 %51, %52
  br i1 %53, label %54, label %81

54:                                               ; preds = %50
  %55 = load i32, i32* %2, align 4
  %56 = sext i32 %55 to i64
  %57 = getelementptr inbounds [10000 x i32], [10000 x i32]* %5, i64 0, i64 %56
  %58 = load i32, i32* %57, align 4
  %59 = load i32, i32* %2, align 4
  %60 = sub nsw i32 %59, 1
  %61 = sext i32 %60 to i64
  %62 = getelementptr inbounds [10000 x i32], [10000 x i32]* %5, i64 0, i64 %61
  %63 = load i32, i32* %62, align 4
  %64 = add nsw i32 %63, 2
  %65 = icmp eq i32 %58, %64
  br i1 %65, label %66, label %77

66:                                               ; preds = %54
  %67 = load i32, i32* %2, align 4
  %68 = sub nsw i32 %67, 1
  %69 = sext i32 %68 to i64
  %70 = getelementptr inbounds [10000 x i32], [10000 x i32]* %5, i64 0, i64 %69
  %71 = load i32, i32* %70, align 4
  %72 = load i32, i32* %2, align 4
  %73 = sext i32 %72 to i64
  %74 = getelementptr inbounds [10000 x i32], [10000 x i32]* %5, i64 0, i64 %73
  %75 = load i32, i32* %74, align 4
  %76 = call i32 (i8*, ...) @printf(i8* getelementptr inbounds ([7 x i8], [7 x i8]* @.str.1, i64 0, i64 0), i32 %71, i32 %75)
  br label %77

77:                                               ; preds = %66, %54
  br label %78

78:                                               ; preds = %77
  %79 = load i32, i32* %2, align 4
  %80 = add nsw i32 %79, 1
  store i32 %80, i32* %2, align 4
  br label %50

81:                                               ; preds = %50
  %82 = getelementptr inbounds [10000 x i32], [10000 x i32]* %5, i64 0, i64 1
  %83 = load i32, i32* %82, align 4
  %84 = icmp eq i32 %83, 0
  br i1 %84, label %85, label %87

85:                                               ; preds = %81
  %86 = call i32 (i8*, ...) @printf(i8* getelementptr inbounds ([6 x i8], [6 x i8]* @.str.2, i64 0, i64 0))
  br label %87

87:                                               ; preds = %85, %81
  ret void
}

; Function Attrs: argmemonly nounwind willreturn
declare void @llvm.memset.p0i8.i64(i8* nocapture writeonly, i8, i64, i1 immarg) #1

declare dso_local i32 @__isoc99_scanf(i8*, ...) #2

declare dso_local i32 @printf(i8*, ...) #2


!llvm.module.flags = !{!0}
!llvm.ident = !{!1}

!0 = !{i32 1, !"wchar_size", i32 4}
!1 = !{!"clang version 10.0.0-4ubuntu1 "}
